#include <math.h>
#include <stdio.h>
#include <stdlib.h>
#include <string.h>

int main()
{
	char a[100];
int n,i;
char *p;
scanf("%d",&n);
getchar();
for(i=0;i<n;i++)
{   

	
	
	gets(a);
	p=a+strlen(a)-1;
	if(*p=='r'){for(p=a;p<a+strlen(a)-2;p++)printf("%c",*p);}
	else if(*p=='y'){for(p=a;p<a+strlen(a)-2;p++)printf("%c",*p);}
	else if(*p=='g'){for(p=a;p<a+strlen(a)-3;p++)printf("%c",*p);}
	printf("\n");
}
return 0;
}
