; ModuleID = '57/2266.c'
source_filename = "57/2266.c"
target datalayout = "e-m:e-p270:32:32-p271:32:32-p272:64:64-i64:64-f80:128-n8:16:32:64-S128"
target triple = "x86_64-pc-linux-gnu"

@.str = private unnamed_addr constant [3 x i8] c"%d\00", align 1
@.str.1 = private unnamed_addr constant [3 x i8] c"%c\00", align 1
@.str.2 = private unnamed_addr constant [2 x i8] c"\0A\00", align 1

; Function Attrs: noinline nounwind uwtable
define dso_local i32 @main() #0 {
  %1 = alloca i32, align 4
  %2 = alloca [100 x i8], align 16
  %3 = alloca i32, align 4
  %4 = alloca i32, align 4
  %5 = alloca i8*, align 8
  store i32 0, i32* %1, align 4
  %6 = call i32 (i8*, ...) @__isoc99_scanf(i8* getelementptr inbounds ([3 x i8], [3 x i8]* @.str, i64 0, i64 0), i32* %3)
  %7 = call i32 @getchar()
  store i32 0, i32* %4, align 4
  br label %8

8:                                                ; preds = %95, %0
  %9 = load i32, i32* %4, align 4
  %10 = load i32, i32* %3, align 4
  %11 = icmp slt i32 %9, %10
  br i1 %11, label %12, label %98

12:                                               ; preds = %8
  %13 = getelementptr inbounds [100 x i8], [100 x i8]* %2, i64 0, i64 0
  %14 = call i32 (i8*, ...) bitcast (i32 (...)* @gets to i32 (i8*, ...)*)(i8* %13)
  %15 = getelementptr inbounds [100 x i8], [100 x i8]* %2, i64 0, i64 0
  %16 = getelementptr inbounds [100 x i8], [100 x i8]* %2, i64 0, i64 0
  %17 = call i64 @strlen(i8* %16) #3
  %18 = getelementptr inbounds i8, i8* %15, i64 %17
  %19 = getelementptr inbounds i8, i8* %18, i64 -1
  store i8* %19, i8** %5, align 8
  %20 = load i8*, i8** %5, align 8
  %21 = load i8, i8* %20, align 1
  %22 = sext i8 %21 to i32
  %23 = icmp eq i32 %22, 114
  br i1 %23, label %24, label %43

24:                                               ; preds = %12
  %25 = getelementptr inbounds [100 x i8], [100 x i8]* %2, i64 0, i64 0
  store i8* %25, i8** %5, align 8
  br label %26

26:                                               ; preds = %39, %24
  %27 = load i8*, i8** %5, align 8
  %28 = getelementptr inbounds [100 x i8], [100 x i8]* %2, i64 0, i64 0
  %29 = getelementptr inbounds [100 x i8], [100 x i8]* %2, i64 0, i64 0
  %30 = call i64 @strlen(i8* %29) #3
  %31 = getelementptr inbounds i8, i8* %28, i64 %30
  %32 = getelementptr inbounds i8, i8* %31, i64 -2
  %33 = icmp ult i8* %27, %32
  br i1 %33, label %34, label %42

34:                                               ; preds = %26
  %35 = load i8*, i8** %5, align 8
  %36 = load i8, i8* %35, align 1
  %37 = sext i8 %36 to i32
  %38 = call i32 (i8*, ...) @printf(i8* getelementptr inbounds ([3 x i8], [3 x i8]* @.str.1, i64 0, i64 0), i32 %37)
  br label %39

39:                                               ; preds = %34
  %40 = load i8*, i8** %5, align 8
  %41 = getelementptr inbounds i8, i8* %40, i32 1
  store i8* %41, i8** %5, align 8
  br label %26

42:                                               ; preds = %26
  br label %93

43:                                               ; preds = %12
  %44 = load i8*, i8** %5, align 8
  %45 = load i8, i8* %44, align 1
  %46 = sext i8 %45 to i32
  %47 = icmp eq i32 %46, 121
  br i1 %47, label %48, label %67

48:                                               ; preds = %43
  %49 = getelementptr inbounds [100 x i8], [100 x i8]* %2, i64 0, i64 0
  store i8* %49, i8** %5, align 8
  br label %50

50:                                               ; preds = %63, %48
  %51 = load i8*, i8** %5, align 8
  %52 = getelementptr inbounds [100 x i8], [100 x i8]* %2, i64 0, i64 0
  %53 = getelementptr inbounds [100 x i8], [100 x i8]* %2, i64 0, i64 0
  %54 = call i64 @strlen(i8* %53) #3
  %55 = getelementptr inbounds i8, i8* %52, i64 %54
  %56 = getelementptr inbounds i8, i8* %55, i64 -2
  %57 = icmp ult i8* %51, %56
  br i1 %57, label %58, label %66

58:                                               ; preds = %50
  %59 = load i8*, i8** %5, align 8
  %60 = load i8, i8* %59, align 1
  %61 = sext i8 %60 to i32
  %62 = call i32 (i8*, ...) @printf(i8* getelementptr inbounds ([3 x i8], [3 x i8]* @.str.1, i64 0, i64 0), i32 %61)
  br label %63

63:                                               ; preds = %58
  %64 = load i8*, i8** %5, align 8
  %65 = getelementptr inbounds i8, i8* %64, i32 1
  store i8* %65, i8** %5, align 8
  br label %50

66:                                               ; preds = %50
  br label %92

67:                                               ; preds = %43
  %68 = load i8*, i8** %5, align 8
  %69 = load i8, i8* %68, align 1
  %70 = sext i8 %69 to i32
  %71 = icmp eq i32 %70, 103
  br i1 %71, label %72, label %91

72:                                               ; preds = %67
  %73 = getelementptr inbounds [100 x i8], [100 x i8]* %2, i64 0, i64 0
  store i8* %73, i8** %5, align 8
  br label %74

74:                                               ; preds = %87, %72
  %75 = load i8*, i8** %5, align 8
  %76 = getelementptr inbounds [100 x i8], [100 x i8]* %2, i64 0, i64 0
  %77 = getelementptr inbounds [100 x i8], [100 x i8]* %2, i64 0, i64 0
  %78 = call i64 @strlen(i8* %77) #3
  %79 = getelementptr inbounds i8, i8* %76, i64 %78
  %80 = getelementptr inbounds i8, i8* %79, i64 -3
  %81 = icmp ult i8* %75, %80
  br i1 %81, label %82, label %90

82:                                               ; preds = %74
  %83 = load i8*, i8** %5, align 8
  %84 = load i8, i8* %83, align 1
  %85 = sext i8 %84 to i32
  %86 = call i32 (i8*, ...) @printf(i8* getelementptr inbounds ([3 x i8], [3 x i8]* @.str.1, i64 0, i64 0), i32 %85)
  br label %87

87:                                               ; preds = %82
  %88 = load i8*, i8** %5, align 8
  %89 = getelementptr inbounds i8, i8* %88, i32 1
  store i8* %89, i8** %5, align 8
  br label %74

90:                                               ; preds = %74
  br label %91

91:                                               ; preds = %90, %67
  br label %92

92:                                               ; preds = %91, %66
  br label %93

93:                                               ; preds = %92, %42
  %94 = call i32 (i8*, ...) @printf(i8* getelementptr inbounds ([2 x i8], [2 x i8]* @.str.2, i64 0, i64 0))
  br label %95

95:                                               ; preds = %93
  %96 = load i32, i32* %4, align 4
  %97 = add nsw i32 %96, 1
  store i32 %97, i32* %4, align 4
  br label %8

98:                                               ; preds = %8
  ret i32 0
}

declare dso_local i32 @__isoc99_scanf(i8*, ...) #1

declare dso_local i32 @getchar() #1

declare dso_local i32 @gets(...) #1

; Function Attrs: nounwind readonly
declare dso_local i64 @strlen(i8*) #2

declare dso_local i32 @printf(i8*, ...) #1


!llvm.module.flags = !{!0}
!llvm.ident = !{!1}

!0 = !{i32 1, !"wchar_size", i32 4}
!1 = !{!"clang version 10.0.0-4ubuntu1 "}
