; ModuleID = 'source-C-CXX/56/2266.c'
source_filename = "source-C-CXX/56/2266.c"
target datalayout = "e-m:e-p270:32:32-p271:32:32-p272:64:64-i64:64-f80:128-n8:16:32:64-S128"
target triple = "x86_64-pc-linux-gnu"

%struct._IO_FILE = type { i32, i8*, i8*, i8*, i8*, i8*, i8*, i8*, i8*, i8*, i8*, i8*, %struct._IO_marker*, %struct._IO_FILE*, i32, i32, i64, i16, i8, [1 x i8], i8*, i64, %struct._IO_codecvt*, %struct._IO_wide_data*, %struct._IO_FILE*, i8*, i64, i32, [20 x i8] }
%struct._IO_marker = type opaque
%struct._IO_codecvt = type opaque
%struct._IO_wide_data = type opaque

@.str = private unnamed_addr constant [3 x i8] c"%d\00", align 1
@stdin = external local_unnamed_addr global %struct._IO_FILE*, align 8

; Function Attrs: nounwind sspstrong uwtable
define dso_local i32 @main() local_unnamed_addr #0 {
  %1 = alloca [100 x i8], align 16
  %2 = alloca i32, align 4
  %3 = getelementptr inbounds [100 x i8], [100 x i8]* %1, i64 0, i64 0
  call void @llvm.lifetime.start.p0i8(i64 100, i8* nonnull %3) #6
  %4 = bitcast i32* %2 to i8*
  call void @llvm.lifetime.start.p0i8(i64 4, i8* nonnull %4) #6
  %5 = call i32 (i8*, ...) @__isoc99_scanf(i8* getelementptr inbounds ([3 x i8], [3 x i8]* @.str, i64 0, i64 0), i32* nonnull %2)
  %6 = load %struct._IO_FILE*, %struct._IO_FILE** @stdin, align 8, !tbaa !5
  %7 = call i32 @getc(%struct._IO_FILE* %6) #6
  %8 = load i32, i32* %2, align 4, !tbaa !9
  %9 = icmp sgt i32 %8, 0
  br i1 %9, label %10, label %67

10:                                               ; preds = %0, %62
  %11 = phi i32 [ %64, %62 ], [ 0, %0 ]
  %12 = call i32 (i8*, ...) bitcast (i32 (...)* @gets to i32 (i8*, ...)*)(i8* nonnull %3) #6
  %13 = call i64 @strlen(i8* noundef nonnull %3) #7
  %14 = getelementptr inbounds [100 x i8], [100 x i8]* %1, i64 0, i64 %13
  %15 = getelementptr inbounds i8, i8* %14, i64 -1
  %16 = load i8, i8* %15, align 1, !tbaa !11
  switch i8 %16, label %62 [
    i8 114, label %27
    i8 121, label %22
    i8 103, label %17
  ]

17:                                               ; preds = %10
  %18 = call i64 @strlen(i8* noundef nonnull %3) #7
  %19 = getelementptr inbounds [100 x i8], [100 x i8]* %1, i64 0, i64 %18
  %20 = getelementptr inbounds i8, i8* %19, i64 -3
  %21 = icmp ult i8* %3, %20
  br i1 %21, label %52, label %62

22:                                               ; preds = %10
  %23 = call i64 @strlen(i8* noundef nonnull %3) #7
  %24 = getelementptr inbounds [100 x i8], [100 x i8]* %1, i64 0, i64 %23
  %25 = getelementptr inbounds i8, i8* %24, i64 -2
  %26 = icmp ult i8* %3, %25
  br i1 %26, label %42, label %62

27:                                               ; preds = %10
  %28 = call i64 @strlen(i8* noundef nonnull %3) #7
  %29 = getelementptr inbounds [100 x i8], [100 x i8]* %1, i64 0, i64 %28
  %30 = getelementptr inbounds i8, i8* %29, i64 -2
  %31 = icmp ult i8* %3, %30
  br i1 %31, label %32, label %62

32:                                               ; preds = %27, %32
  %33 = phi i8* [ %37, %32 ], [ %3, %27 ]
  %34 = load i8, i8* %33, align 1, !tbaa !11
  %35 = sext i8 %34 to i32
  %36 = call i32 @putchar(i32 %35)
  %37 = getelementptr inbounds i8, i8* %33, i64 1
  %38 = call i64 @strlen(i8* noundef nonnull %3) #7
  %39 = getelementptr inbounds [100 x i8], [100 x i8]* %1, i64 0, i64 %38
  %40 = getelementptr inbounds i8, i8* %39, i64 -2
  %41 = icmp ult i8* %37, %40
  br i1 %41, label %32, label %62, !llvm.loop !12

42:                                               ; preds = %22, %42
  %43 = phi i8* [ %47, %42 ], [ %3, %22 ]
  %44 = load i8, i8* %43, align 1, !tbaa !11
  %45 = sext i8 %44 to i32
  %46 = call i32 @putchar(i32 %45)
  %47 = getelementptr inbounds i8, i8* %43, i64 1
  %48 = call i64 @strlen(i8* noundef nonnull %3) #7
  %49 = getelementptr inbounds [100 x i8], [100 x i8]* %1, i64 0, i64 %48
  %50 = getelementptr inbounds i8, i8* %49, i64 -2
  %51 = icmp ult i8* %47, %50
  br i1 %51, label %42, label %62, !llvm.loop !14

52:                                               ; preds = %17, %52
  %53 = phi i8* [ %57, %52 ], [ %3, %17 ]
  %54 = load i8, i8* %53, align 1, !tbaa !11
  %55 = sext i8 %54 to i32
  %56 = call i32 @putchar(i32 %55)
  %57 = getelementptr inbounds i8, i8* %53, i64 1
  %58 = call i64 @strlen(i8* noundef nonnull %3) #7
  %59 = getelementptr inbounds [100 x i8], [100 x i8]* %1, i64 0, i64 %58
  %60 = getelementptr inbounds i8, i8* %59, i64 -3
  %61 = icmp ult i8* %57, %60
  br i1 %61, label %52, label %62, !llvm.loop !15

62:                                               ; preds = %52, %42, %32, %17, %22, %27, %10
  %63 = call i32 @putchar(i32 10)
  %64 = add nuw nsw i32 %11, 1
  %65 = load i32, i32* %2, align 4, !tbaa !9
  %66 = icmp slt i32 %64, %65
  br i1 %66, label %10, label %67, !llvm.loop !16

67:                                               ; preds = %62, %0
  call void @llvm.lifetime.end.p0i8(i64 4, i8* nonnull %4) #6
  call void @llvm.lifetime.end.p0i8(i64 100, i8* nonnull %3) #6
  ret i32 0
}

; Function Attrs: argmemonly mustprogress nofree nosync nounwind willreturn
declare void @llvm.lifetime.start.p0i8(i64 immarg, i8* nocapture) #1

; Function Attrs: nofree nounwind
declare noundef i32 @__isoc99_scanf(i8* nocapture noundef readonly, ...) local_unnamed_addr #2

declare i32 @gets(...) local_unnamed_addr #3

; Function Attrs: argmemonly mustprogress nofree nounwind readonly willreturn
declare i64 @strlen(i8* nocapture) local_unnamed_addr #4

; Function Attrs: argmemonly mustprogress nofree nosync nounwind willreturn
declare void @llvm.lifetime.end.p0i8(i64 immarg, i8* nocapture) #1

; Function Attrs: nofree nounwind
declare noundef i32 @getc(%struct._IO_FILE* nocapture noundef) local_unnamed_addr #2

; Function Attrs: nofree nounwind
declare noundef i32 @putchar(i32 noundef) local_unnamed_addr #5


!llvm.module.flags = !{!0, !1, !2, !3}
!llvm.ident = !{!4}

!0 = !{i32 1, !"wchar_size", i32 4}
!1 = !{i32 7, !"PIC Level", i32 2}
!2 = !{i32 7, !"PIE Level", i32 2}
!3 = !{i32 7, !"uwtable", i32 1}
!4 = !{!"clang version 13.0.0"}
!5 = !{!6, !6, i64 0}
!6 = !{!"any pointer", !7, i64 0}
!7 = !{!"omnipotent char", !8, i64 0}
!8 = !{!"Simple C/C++ TBAA"}
!9 = !{!10, !10, i64 0}
!10 = !{!"int", !7, i64 0}
!11 = !{!7, !7, i64 0}
!12 = distinct !{!12, !13}
!13 = !{!"llvm.loop.mustprogress"}
!14 = distinct !{!14, !13}
!15 = distinct !{!15, !13}
!16 = distinct !{!16, !13}
